target datalayout = "e-m:e-p270:32:32-p271:32:32-p272:64:64-i64:64-i128:128-f80:128-n8:16:32:64-S128"
target triple = "x86_64-pc-linux-gnu"

%struct.HysteresisContext = type { ptr, %struct.FFFrameSync, i32, i32, [4 x i32], [4 x i32], i32, i32, ptr, ptr, i32, ptr }
%struct.FFFrameSync = type { ptr, ptr, i32, %struct.AVRational, i64, ptr, ptr, i32, i32, i8, i8, ptr, i32, i32, i32, i32 }
%struct.AVRational = type { i32, i32 }

; Function Attrs: nounwind uwtable
define internal void @pop(ptr noundef %0, ptr noundef %1, ptr noundef %2) #0 {
  %4 = alloca ptr, align 8
  %5 = alloca ptr, align 8
  %6 = alloca ptr, align 8
  %7 = alloca i32, align 4
  store ptr %0, ptr %4, align 8, !tbaa !22
  store ptr %1, ptr %5, align 8, !tbaa !75
  store ptr %2, ptr %6, align 8, !tbaa !75
  call void @llvm.lifetime.start.p0(i64 4, ptr %7) #9
  %8 = load ptr, ptr %4, align 8, !tbaa !22
  %9 = getelementptr inbounds nuw %struct.HysteresisContext, ptr %8, i32 0, i32 9
  %10 = load ptr, ptr %9, align 8, !tbaa !54
  %11 = load ptr, ptr %4, align 8, !tbaa !22
  %12 = getelementptr inbounds nuw %struct.HysteresisContext, ptr %11, i32 0, i32 10
  %13 = load i32, ptr %12, align 8, !tbaa !74
  %14 = add nsw i32 %13, -1
  store i32 %14, ptr %12, align 8, !tbaa !74
  %15 = sext i32 %13 to i64
  %16 = getelementptr inbounds i32, ptr %10, i64 %15
  %17 = load i32, ptr %16, align 4, !tbaa !45
  store i32 %17, ptr %7, align 4, !tbaa !45
  %18 = load i32, ptr %7, align 4, !tbaa !45
  %19 = lshr i32 %18, 16
  %20 = load ptr, ptr %5, align 8, !tbaa !75
  store i32 %19, ptr %20, align 4, !tbaa !45
  %21 = load i32, ptr %7, align 4, !tbaa !45
  %22 = and i32 %21, 65535
  %23 = load ptr, ptr %6, align 8, !tbaa !75
  store i32 %22, ptr %23, align 4, !tbaa !45
  call void @llvm.lifetime.end.p0(i64 4, ptr %7) #9
  ret void
}

; Function Attrs: nounwind uwtable
define internal i32 @is_empty(ptr noundef %0) #0 {
  %2 = alloca ptr, align 8
  store ptr %0, ptr %2, align 8, !tbaa !22
  %3 = load ptr, ptr %2, align 8, !tbaa !22
  %4 = getelementptr inbounds nuw %struct.HysteresisContext, ptr %3, i32 0, i32 10
  %5 = load i32, ptr %4, align 8, !tbaa !74
  %6 = icmp slt i32 %5, 0
  %7 = zext i1 %6 to i32
  ret i32 %7
}

; Function Attrs: nounwind uwtable
define internal void @push(ptr noundef %0, i32 noundef %1, i32 noundef %2, i32 noundef %3) #0 {
  %5 = alloca ptr, align 8
  %6 = alloca i32, align 4
  %7 = alloca i32, align 4
  %8 = alloca i32, align 4
  store ptr %0, ptr %5, align 8, !tbaa !22
  store i32 %1, ptr %6, align 4, !tbaa !45
  store i32 %2, ptr %7, align 4, !tbaa !45
  store i32 %3, ptr %8, align 4, !tbaa !45
  %9 = load ptr, ptr %5, align 8, !tbaa !22
  %10 = getelementptr inbounds nuw %struct.HysteresisContext, ptr %9, i32 0, i32 8
  %11 = load ptr, ptr %10, align 8, !tbaa !53
  %12 = load i32, ptr %6, align 4, !tbaa !45
  %13 = load i32, ptr %7, align 4, !tbaa !45
  %14 = load i32, ptr %8, align 4, !tbaa !45
  %15 = mul nsw i32 %13, %14
  %16 = add nsw i32 %12, %15
  %17 = sext i32 %16 to i64
  %18 = getelementptr inbounds i8, ptr %11, i64 %17
  store i8 -1, ptr %18, align 1, !tbaa !58
  %19 = load i32, ptr %6, align 4, !tbaa !45
  %20 = trunc i32 %19 to i16
  %21 = zext i16 %20 to i32
  %22 = shl i32 %21, 16
  %23 = load i32, ptr %7, align 4, !tbaa !45
  %24 = trunc i32 %23 to i16
  %25 = zext i16 %24 to i32
  %26 = or i32 %22, %25
  %27 = load ptr, ptr %5, align 8, !tbaa !22
  %28 = getelementptr inbounds nuw %struct.HysteresisContext, ptr %27, i32 0, i32 9
  %29 = load ptr, ptr %28, align 8, !tbaa !54
  %30 = load ptr, ptr %5, align 8, !tbaa !22
  %31 = getelementptr inbounds nuw %struct.HysteresisContext, ptr %30, i32 0, i32 10
  %32 = load i32, ptr %31, align 8, !tbaa !74
  %33 = add nsw i32 %32, 1
  store i32 %33, ptr %31, align 8, !tbaa !74
  %34 = sext i32 %33 to i64
  %35 = getelementptr inbounds i32, ptr %29, i64 %34
  store i32 %26, ptr %35, align 4, !tbaa !45
  ret void
}

; Function Attrs: nounwind uwtable
define internal i32 @passed(ptr noundef %0, i32 noundef %1, i32 noundef %2, i32 noundef %3) #0 {
  %5 = alloca ptr, align 8
  %6 = alloca i32, align 4
  %7 = alloca i32, align 4
  %8 = alloca i32, align 4
  store ptr %0, ptr %5, align 8, !tbaa !22
  store i32 %1, ptr %6, align 4, !tbaa !45
  store i32 %2, ptr %7, align 4, !tbaa !45
  store i32 %3, ptr %8, align 4, !tbaa !45
  %9 = load ptr, ptr %5, align 8, !tbaa !22
  %10 = getelementptr inbounds nuw %struct.HysteresisContext, ptr %9, i32 0, i32 8
  %11 = load ptr, ptr %10, align 8, !tbaa !53
  %12 = load i32, ptr %6, align 4, !tbaa !45
  %13 = load i32, ptr %7, align 4, !tbaa !45
  %14 = load i32, ptr %8, align 4, !tbaa !45
  %15 = mul nsw i32 %13, %14
  %16 = add nsw i32 %12, %15
  %17 = sext i32 %16 to i64
  %18 = getelementptr inbounds i8, ptr %11, i64 %17
  %19 = load i8, ptr %18, align 1, !tbaa !58
  %20 = zext i8 %19 to i32
  ret i32 %20
}

; Function Attrs: nounwind uwtable
define internal void @hysteresis8(ptr noundef %0, ptr noundef %1, ptr noundef %2, ptr noundef %3, i64 noundef %4, i64 noundef %5, i64 noundef %6, i32 noundef %7, i32 noundef %8) #0 {
  %10 = alloca ptr, align 8
  %11 = alloca ptr, align 8
  %12 = alloca ptr, align 8
  %13 = alloca ptr, align 8
  %14 = alloca i64, align 8
  %15 = alloca i64, align 8
  %16 = alloca i64, align 8
  %17 = alloca i32, align 4
  %18 = alloca i32, align 4
  %19 = alloca i32, align 4
  %20 = alloca i32, align 4
  %21 = alloca i32, align 4
  %22 = alloca i32, align 4
  %23 = alloca i32, align 4
  %24 = alloca i32, align 4
  %25 = alloca i32, align 4
  %26 = alloca i32, align 4
  %27 = alloca i32, align 4
  %28 = alloca i32, align 4
  %29 = alloca i32, align 4
  store ptr %0, ptr %10, align 8, !tbaa !22
  store ptr %1, ptr %11, align 8, !tbaa !55
  store ptr %2, ptr %12, align 8, !tbaa !55
  store ptr %3, ptr %13, align 8, !tbaa !55
  store i64 %4, ptr %14, align 8, !tbaa !56
  store i64 %5, ptr %15, align 8, !tbaa !56
  store i64 %6, ptr %16, align 8, !tbaa !56
  store i32 %7, ptr %17, align 4, !tbaa !45
  store i32 %8, ptr %18, align 4, !tbaa !45
  call void @llvm.lifetime.start.p0(i64 4, ptr %19) #9
  %30 = load ptr, ptr %10, align 8, !tbaa !22
  %31 = getelementptr inbounds nuw %struct.HysteresisContext, ptr %30, i32 0, i32 3
  %32 = load i32, ptr %31, align 4, !tbaa !57
  store i32 %32, ptr %19, align 4, !tbaa !45
  call void @llvm.lifetime.start.p0(i64 4, ptr %20) #9
  call void @llvm.lifetime.start.p0(i64 4, ptr %21) #9
  store i32 0, ptr %21, align 4, !tbaa !45
  br label %33

33:                                               ; preds = %217, %9
  %34 = load i32, ptr %21, align 4, !tbaa !45
  %35 = load i32, ptr %18, align 4, !tbaa !45
  %36 = icmp slt i32 %34, %35
  br i1 %36, label %37, label %220

37:                                               ; preds = %33
  store i32 0, ptr %20, align 4, !tbaa !45
  br label %38

38:                                               ; preds = %213, %37
  %39 = load i32, ptr %20, align 4, !tbaa !45
  %40 = load i32, ptr %17, align 4, !tbaa !45
  %41 = icmp slt i32 %39, %40
  br i1 %41, label %42, label %216

42:                                               ; preds = %38
  %43 = load ptr, ptr %11, align 8, !tbaa !55
  %44 = load i32, ptr %20, align 4, !tbaa !45
  %45 = sext i32 %44 to i64
  %46 = load i32, ptr %21, align 4, !tbaa !45
  %47 = sext i32 %46 to i64
  %48 = load i64, ptr %14, align 8, !tbaa !56
  %49 = mul nsw i64 %47, %48
  %50 = add nsw i64 %45, %49
  %51 = getelementptr inbounds i8, ptr %43, i64 %50
  %52 = load i8, ptr %51, align 1, !tbaa !58
  %53 = zext i8 %52 to i32
  %54 = load i32, ptr %19, align 4, !tbaa !45
  %55 = icmp sgt i32 %53, %54
  br i1 %55, label %56, label %212

56:                                               ; preds = %42
  %57 = load ptr, ptr %12, align 8, !tbaa !55
  %58 = load i32, ptr %20, align 4, !tbaa !45
  %59 = sext i32 %58 to i64
  %60 = load i32, ptr %21, align 4, !tbaa !45
  %61 = sext i32 %60 to i64
  %62 = load i64, ptr %15, align 8, !tbaa !56
  %63 = mul nsw i64 %61, %62
  %64 = add nsw i64 %59, %63
  %65 = getelementptr inbounds i8, ptr %57, i64 %64
  %66 = load i8, ptr %65, align 1, !tbaa !58
  %67 = zext i8 %66 to i32
  %68 = load i32, ptr %19, align 4, !tbaa !45
  %69 = icmp sgt i32 %67, %68
  br i1 %69, label %70, label %212

70:                                               ; preds = %56
  %71 = load ptr, ptr %10, align 8, !tbaa !22
  %72 = load i32, ptr %20, align 4, !tbaa !45
  %73 = load i32, ptr %21, align 4, !tbaa !45
  %74 = load i32, ptr %17, align 4, !tbaa !45
  %75 = call i32 @passed(ptr noundef %71, i32 noundef %72, i32 noundef %73, i32 noundef %74)
  %76 = icmp ne i32 %75, 0
  br i1 %76, label %212, label %77

77:                                               ; preds = %70
  call void @llvm.lifetime.start.p0(i64 4, ptr %22) #9
  call void @llvm.lifetime.start.p0(i64 4, ptr %23) #9
  %78 = load ptr, ptr %12, align 8, !tbaa !55
  %79 = load i32, ptr %20, align 4, !tbaa !45
  %80 = sext i32 %79 to i64
  %81 = load i32, ptr %21, align 4, !tbaa !45
  %82 = sext i32 %81 to i64
  %83 = load i64, ptr %15, align 8, !tbaa !56
  %84 = mul nsw i64 %82, %83
  %85 = add nsw i64 %80, %84
  %86 = getelementptr inbounds i8, ptr %78, i64 %85
  %87 = load i8, ptr %86, align 1, !tbaa !58
  %88 = load ptr, ptr %13, align 8, !tbaa !55
  %89 = load i32, ptr %20, align 4, !tbaa !45
  %90 = sext i32 %89 to i64
  %91 = load i32, ptr %21, align 4, !tbaa !45
  %92 = sext i32 %91 to i64
  %93 = load i64, ptr %16, align 8, !tbaa !56
  %94 = mul nsw i64 %92, %93
  %95 = add nsw i64 %90, %94
  %96 = getelementptr inbounds i8, ptr %88, i64 %95
  store i8 %87, ptr %96, align 1, !tbaa !58
  %97 = load ptr, ptr %10, align 8, !tbaa !22
  %98 = load i32, ptr %20, align 4, !tbaa !45
  %99 = load i32, ptr %21, align 4, !tbaa !45
  %100 = load i32, ptr %17, align 4, !tbaa !45
  call void @push(ptr noundef %97, i32 noundef %98, i32 noundef %99, i32 noundef %100)
  br label %101

101:                                              ; preds = %210, %77
  %102 = load ptr, ptr %10, align 8, !tbaa !22
  %103 = call i32 @is_empty(ptr noundef %102)
  %104 = icmp ne i32 %103, 0
  %105 = xor i1 %104, true
  br i1 %105, label %106, label %211

106:                                              ; preds = %101
  call void @llvm.lifetime.start.p0(i64 4, ptr %24) #9
  call void @llvm.lifetime.start.p0(i64 4, ptr %25) #9
  call void @llvm.lifetime.start.p0(i64 4, ptr %26) #9
  call void @llvm.lifetime.start.p0(i64 4, ptr %27) #9
  call void @llvm.lifetime.start.p0(i64 4, ptr %28) #9
  call void @llvm.lifetime.start.p0(i64 4, ptr %29) #9
  %107 = load ptr, ptr %10, align 8, !tbaa !22
  call void @pop(ptr noundef %107, ptr noundef %22, ptr noundef %23)
  %108 = load i32, ptr %22, align 4, !tbaa !45
  %109 = icmp sgt i32 %108, 0
  br i1 %109, label %110, label %113

110:                                              ; preds = %106
  %111 = load i32, ptr %22, align 4, !tbaa !45
  %112 = sub nsw i32 %111, 1
  br label %114

113:                                              ; preds = %106
  br label %114

114:                                              ; preds = %113, %110
  %115 = phi i32 [ %112, %110 ], [ 0, %113 ]
  store i32 %115, ptr %24, align 4, !tbaa !45
  %116 = load i32, ptr %22, align 4, !tbaa !45
  %117 = load i32, ptr %17, align 4, !tbaa !45
  %118 = sub nsw i32 %117, 1
  %119 = icmp slt i32 %116, %118
  br i1 %119, label %120, label %123

120:                                              ; preds = %114
  %121 = load i32, ptr %22, align 4, !tbaa !45
  %122 = add nsw i32 %121, 1
  br label %125

123:                                              ; preds = %114
  %124 = load i32, ptr %22, align 4, !tbaa !45
  br label %125

125:                                              ; preds = %123, %120
  %126 = phi i32 [ %122, %120 ], [ %124, %123 ]
  store i32 %126, ptr %25, align 4, !tbaa !45
  %127 = load i32, ptr %23, align 4, !tbaa !45
  %128 = icmp sgt i32 %127, 0
  br i1 %128, label %129, label %132

129:                                              ; preds = %125
  %130 = load i32, ptr %23, align 4, !tbaa !45
  %131 = sub nsw i32 %130, 1
  br label %133

132:                                              ; preds = %125
  br label %133

133:                                              ; preds = %132, %129
  %134 = phi i32 [ %131, %129 ], [ 0, %132 ]
  store i32 %134, ptr %26, align 4, !tbaa !45
  %135 = load i32, ptr %23, align 4, !tbaa !45
  %136 = load i32, ptr %18, align 4, !tbaa !45
  %137 = sub nsw i32 %136, 1
  %138 = icmp slt i32 %135, %137
  br i1 %138, label %139, label %142

139:                                              ; preds = %133
  %140 = load i32, ptr %23, align 4, !tbaa !45
  %141 = add nsw i32 %140, 1
  br label %144

142:                                              ; preds = %133
  %143 = load i32, ptr %23, align 4, !tbaa !45
  br label %144

144:                                              ; preds = %142, %139
  %145 = phi i32 [ %141, %139 ], [ %143, %142 ]
  store i32 %145, ptr %27, align 4, !tbaa !45
  %146 = load i32, ptr %26, align 4, !tbaa !45
  store i32 %146, ptr %28, align 4, !tbaa !45
  br label %147

147:                                              ; preds = %207, %144
  %148 = load i32, ptr %28, align 4, !tbaa !45
  %149 = load i32, ptr %27, align 4, !tbaa !45
  %150 = icmp sle i32 %148, %149
  br i1 %150, label %151, label %210

151:                                              ; preds = %147
  %152 = load i32, ptr %24, align 4, !tbaa !45
  store i32 %152, ptr %29, align 4, !tbaa !45
  br label %153

153:                                              ; preds = %203, %151
  %154 = load i32, ptr %29, align 4, !tbaa !45
  %155 = load i32, ptr %25, align 4, !tbaa !45
  %156 = icmp sle i32 %154, %155
  br i1 %156, label %157, label %206

157:                                              ; preds = %153
  %158 = load ptr, ptr %12, align 8, !tbaa !55
  %159 = load i32, ptr %29, align 4, !tbaa !45
  %160 = sext i32 %159 to i64
  %161 = load i32, ptr %28, align 4, !tbaa !45
  %162 = sext i32 %161 to i64
  %163 = load i64, ptr %15, align 8, !tbaa !56
  %164 = mul nsw i64 %162, %163
  %165 = add nsw i64 %160, %164
  %166 = getelementptr inbounds i8, ptr %158, i64 %165
  %167 = load i8, ptr %166, align 1, !tbaa !58
  %168 = zext i8 %167 to i32
  %169 = load i32, ptr %19, align 4, !tbaa !45
  %170 = icmp sgt i32 %168, %169
  br i1 %170, label %171, label %202

171:                                              ; preds = %157
  %172 = load ptr, ptr %10, align 8, !tbaa !22
  %173 = load i32, ptr %29, align 4, !tbaa !45
  %174 = load i32, ptr %28, align 4, !tbaa !45
  %175 = load i32, ptr %17, align 4, !tbaa !45
  %176 = call i32 @passed(ptr noundef %172, i32 noundef %173, i32 noundef %174, i32 noundef %175)
  %177 = icmp ne i32 %176, 0
  br i1 %177, label %202, label %178

178:                                              ; preds = %171
  %179 = load ptr, ptr %12, align 8, !tbaa !55
  %180 = load i32, ptr %29, align 4, !tbaa !45
  %181 = sext i32 %180 to i64
  %182 = load i32, ptr %28, align 4, !tbaa !45
  %183 = sext i32 %182 to i64
  %184 = load i64, ptr %15, align 8, !tbaa !56
  %185 = mul nsw i64 %183, %184
  %186 = add nsw i64 %181, %185
  %187 = getelementptr inbounds i8, ptr %179, i64 %186
  %188 = load i8, ptr %187, align 1, !tbaa !58
  %189 = load ptr, ptr %13, align 8, !tbaa !55
  %190 = load i32, ptr %29, align 4, !tbaa !45
  %191 = sext i32 %190 to i64
  %192 = load i32, ptr %28, align 4, !tbaa !45
  %193 = sext i32 %192 to i64
  %194 = load i64, ptr %16, align 8, !tbaa !56
  %195 = mul nsw i64 %193, %194
  %196 = add nsw i64 %191, %195
  %197 = getelementptr inbounds i8, ptr %189, i64 %196
  store i8 %188, ptr %197, align 1, !tbaa !58
  %198 = load ptr, ptr %10, align 8, !tbaa !22
  %199 = load i32, ptr %29, align 4, !tbaa !45
  %200 = load i32, ptr %28, align 4, !tbaa !45
  %201 = load i32, ptr %17, align 4, !tbaa !45
  call void @push(ptr noundef %198, i32 noundef %199, i32 noundef %200, i32 noundef %201)
  br label %202

202:                                              ; preds = %178, %171, %157
  br label %203

203:                                              ; preds = %202
  %204 = load i32, ptr %29, align 4, !tbaa !45
  %205 = add nsw i32 %204, 1
  store i32 %205, ptr %29, align 4, !tbaa !45
  br label %153, !llvm.loop !59

206:                                              ; preds = %153
  br label %207

207:                                              ; preds = %206
  %208 = load i32, ptr %28, align 4, !tbaa !45
  %209 = add nsw i32 %208, 1
  store i32 %209, ptr %28, align 4, !tbaa !45
  br label %147, !llvm.loop !61

210:                                              ; preds = %147
  call void @llvm.lifetime.end.p0(i64 4, ptr %29) #9
  call void @llvm.lifetime.end.p0(i64 4, ptr %28) #9
  call void @llvm.lifetime.end.p0(i64 4, ptr %27) #9
  call void @llvm.lifetime.end.p0(i64 4, ptr %26) #9
  call void @llvm.lifetime.end.p0(i64 4, ptr %25) #9
  call void @llvm.lifetime.end.p0(i64 4, ptr %24) #9
  br label %101, !llvm.loop !62

211:                                              ; preds = %101
  call void @llvm.lifetime.end.p0(i64 4, ptr %23) #9
  call void @llvm.lifetime.end.p0(i64 4, ptr %22) #9
  br label %212

212:                                              ; preds = %211, %70, %56, %42
  br label %213

213:                                              ; preds = %212
  %214 = load i32, ptr %20, align 4, !tbaa !45
  %215 = add nsw i32 %214, 1
  store i32 %215, ptr %20, align 4, !tbaa !45
  br label %38, !llvm.loop !63

216:                                              ; preds = %38
  br label %217

217:                                              ; preds = %216
  %218 = load i32, ptr %21, align 4, !tbaa !45
  %219 = add nsw i32 %218, 1
  store i32 %219, ptr %21, align 4, !tbaa !45
  br label %33, !llvm.loop !64

220:                                              ; preds = %33
  call void @llvm.lifetime.end.p0(i64 4, ptr %21) #9
  call void @llvm.lifetime.end.p0(i64 4, ptr %20) #9
  call void @llvm.lifetime.end.p0(i64 4, ptr %19) #9
  ret void
}