; Function Attrs: nofree norecurse nosync nounwind memory(readwrite, inaccessiblemem: none) uwtable
define internal void @hysteresis8(ptr noundef captures(none) %0, ptr noundef readonly captures(none) %1, ptr noundef readonly captures(none) %2, ptr noundef writeonly captures(none) %3, i64 noundef %4, i64 noundef %5, i64 noundef %6, i32 noundef %7, i32 noundef %8) #4 {
  %10 = getelementptr inbounds nuw i8, ptr %0, i64 108
  %11 = load i32, ptr %10, align 4, !tbaa !48
  %12 = icmp sgt i32 %8, 0
  br i1 %12, label %.preheader79.lr.ph, label %._crit_edge92

.preheader79.lr.ph:                               ; preds = %9
  %13 = icmp sgt i32 %7, 0
  %14 = getelementptr i8, ptr %0, i64 152
  %15 = getelementptr inbounds nuw i8, ptr %0, i64 160
  %16 = getelementptr inbounds nuw i8, ptr %0, i64 168
  %17 = add nsw i32 %7, -1
  %18 = add nsw i32 %8, -1
  br i1 %13, label %.preheader79.us.preheader, label %._crit_edge92

.preheader79.us.preheader:                        ; preds = %.preheader79.lr.ph
  %19 = zext nneg i32 %7 to i64
  %wide.trip.count114 = zext nneg i32 %8 to i64
  br label %.preheader79.us

.preheader79.us:                                  ; preds = %.preheader79.us.preheader, %._crit_edge90.us
  %indvars.iv111 = phi i64 [ 0, %.preheader79.us.preheader ], [ %indvars.iv.next112, %._crit_edge90.us ]
  %20 = mul nsw i64 %4, %indvars.iv111
  %21 = getelementptr i8, ptr %1, i64 %20
  %22 = mul nsw i64 %5, %indvars.iv111
  %23 = getelementptr i8, ptr %2, i64 %22
  %24 = mul nuw nsw i64 %indvars.iv111, %19
  %25 = mul nsw i64 %6, %indvars.iv111
  %26 = getelementptr i8, ptr %3, i64 %25
  %27 = trunc nuw nsw i64 %indvars.iv111 to i32
  %28 = and i32 %27, 65535
  br label %29

29:                                               ; preds = %.preheader79.us, %.loopexit78.us
  %indvars.iv106 = phi i64 [ 0, %.preheader79.us ], [ %indvars.iv.next107, %.loopexit78.us ]
  %30 = getelementptr i8, ptr %21, i64 %indvars.iv106
  %31 = load i8, ptr %30, align 1, !tbaa !49
  %32 = zext i8 %31 to i32
  %33 = icmp slt i32 %11, %32
  br i1 %33, label %34, label %.loopexit78.us

34:                                               ; preds = %29
  %35 = getelementptr i8, ptr %23, i64 %indvars.iv106
  %36 = load i8, ptr %35, align 1, !tbaa !49
  %37 = zext i8 %36 to i32
  %38 = icmp slt i32 %11, %37
  br i1 %38, label %39, label %.loopexit78.us

39:                                               ; preds = %34
  %.val.us = load ptr, ptr %14, align 8, !tbaa !46
  %40 = add nuw nsw i64 %indvars.iv106, %24
  %41 = getelementptr inbounds nuw i8, ptr %.val.us, i64 %40
  %42 = load i8, ptr %41, align 1, !tbaa !49
  %.not.us = icmp eq i8 %42, 0
  br i1 %.not.us, label %43, label %.loopexit78.us

43:                                               ; preds = %39
  %44 = getelementptr i8, ptr %26, i64 %indvars.iv106
  store i8 %36, ptr %44, align 1, !tbaa !49
  %45 = load ptr, ptr %14, align 8, !tbaa !46
  %46 = getelementptr inbounds nuw i8, ptr %45, i64 %40
  store i8 -1, ptr %46, align 1, !tbaa !49
  %47 = trunc nuw nsw i64 %indvars.iv106 to i32
  %48 = shl i32 %47, 16
  %49 = or disjoint i32 %48, %28
  %50 = load ptr, ptr %15, align 8, !tbaa !47
  %51 = load i32, ptr %16, align 8, !tbaa !50
  %52 = add nsw i32 %51, 1
  store i32 %52, ptr %16, align 8, !tbaa !50
  %53 = sext i32 %52 to i64
  %54 = getelementptr inbounds i32, ptr %50, i64 %53
  store i32 %49, ptr %54, align 4, !tbaa !40
  %.val7684.us = load i32, ptr %16, align 8, !tbaa !50
  %.not7185.us = icmp sgt i32 %.val7684.us, -1
  br i1 %.not7185.us, label %.lr.ph.us, label %.loopexit78.us

.loopexit78.us:                                   ; preds = %.loopexit.us, %43, %39, %34, %29
  %indvars.iv.next107 = add nuw nsw i64 %indvars.iv106, 1
  %exitcond110.not = icmp eq i64 %indvars.iv.next107, %19
  br i1 %exitcond110.not, label %._crit_edge90.us, label %29, !llvm.loop !51

.lr.ph.us:                                        ; preds = %43, %.loopexit.us
  %55 = phi ptr [ %102, %.loopexit.us ], [ %50, %43 ]
  %.val7686.us = phi i32 [ %.val76.us, %.loopexit.us ], [ %.val7684.us, %43 ]
  %56 = add nsw i32 %.val7686.us, -1
  store i32 %56, ptr %16, align 8, !tbaa !50
  %57 = zext nneg i32 %.val7686.us to i64
  %58 = getelementptr inbounds nuw i32, ptr %55, i64 %57
  %59 = load i32, ptr %58, align 4, !tbaa !40
  %60 = lshr i32 %59, 16
  %61 = and i32 %59, 65535
  %62 = tail call i32 @llvm.usub.sat.i32(i32 %60, i32 1)
  %63 = icmp slt i32 %60, %17
  %64 = zext i1 %63 to i32
  %65 = tail call i32 @llvm.usub.sat.i32(i32 %61, i32 1)
  %66 = icmp slt i32 %61, %18
  %67 = zext i1 %66 to i32
  %68 = add nuw nsw i32 %61, %67
  %.not7282.us = icmp samesign ugt i32 %65, %68
  %69 = add nuw nsw i32 %60, %64
  %.not7380.us = icmp samesign ugt i32 %62, %69
  %or.cond = select i1 %.not7282.us, i1 true, i1 %.not7380.us
  br i1 %or.cond, label %.loopexit.us, label %.preheader.us93.preheader

70:                                               ; preds = %.preheader.us93, %92
  %71 = phi ptr [ %94, %.preheader.us93 ], [ %93, %92 ]
  %indvars.iv = phi i64 [ %103, %.preheader.us93 ], [ %indvars.iv.next, %92 ]
  %72 = getelementptr i8, ptr %96, i64 %indvars.iv
  %73 = load i8, ptr %72, align 1, !tbaa !49
  %74 = zext i8 %73 to i32
  %75 = icmp slt i32 %11, %74
  br i1 %75, label %76, label %92

76:                                               ; preds = %70
  %.val75.us = load ptr, ptr %14, align 8, !tbaa !46
  %77 = add nuw nsw i64 %indvars.iv, %97
  %78 = getelementptr inbounds nuw i8, ptr %.val75.us, i64 %77
  %79 = load i8, ptr %78, align 1, !tbaa !49
  %.not74.us = icmp eq i8 %79, 0
  br i1 %.not74.us, label %80, label %92

80:                                               ; preds = %76
  %81 = getelementptr i8, ptr %99, i64 %indvars.iv
  store i8 %73, ptr %81, align 1, !tbaa !49
  %82 = load ptr, ptr %14, align 8, !tbaa !46
  %83 = getelementptr inbounds nuw i8, ptr %82, i64 %77
  store i8 -1, ptr %83, align 1, !tbaa !49
  %84 = trunc nuw nsw i64 %indvars.iv to i32
  %85 = shl i32 %84, 16
  %86 = or disjoint i32 %85, %101
  %87 = load ptr, ptr %15, align 8, !tbaa !47
  %88 = load i32, ptr %16, align 8, !tbaa !50
  %89 = add nsw i32 %88, 1
  store i32 %89, ptr %16, align 8, !tbaa !50
  %90 = sext i32 %89 to i64
  %91 = getelementptr inbounds i32, ptr %87, i64 %90
  store i32 %86, ptr %91, align 4, !tbaa !40
  br label %92

92:                                               ; preds = %80, %76, %70
  %93 = phi ptr [ %87, %80 ], [ %71, %76 ], [ %71, %70 ]
  %indvars.iv.next = add nuw nsw i64 %indvars.iv, 1
  %exitcond.not = icmp eq i64 %indvars.iv.next, %wide.trip.count
  br i1 %exitcond.not, label %._crit_edge.us, label %70, !llvm.loop !53

.preheader.us93:                                  ; preds = %.preheader.us93.preheader, %._crit_edge.us
  %94 = phi ptr [ %55, %.preheader.us93.preheader ], [ %93, %._crit_edge.us ]
  %indvars.iv101 = phi i64 [ %106, %.preheader.us93.preheader ], [ %indvars.iv.next102, %._crit_edge.us ]
  %95 = mul nsw i64 %5, %indvars.iv101
  %96 = getelementptr i8, ptr %2, i64 %95
  %97 = mul nuw nsw i64 %indvars.iv101, %19
  %98 = mul nsw i64 %6, %indvars.iv101
  %99 = getelementptr i8, ptr %3, i64 %98
  %100 = trunc nuw nsw i64 %indvars.iv101 to i32
  %101 = and i32 %100, 65535
  br label %70

.loopexit.us.loopexit98:                          ; preds = %._crit_edge.us
  %.val76.us.pre = load i32, ptr %16, align 8, !tbaa !50
  br label %.loopexit.us

.loopexit.us:                                     ; preds = %.loopexit.us.loopexit98, %.lr.ph.us
  %.val76.us = phi i32 [ %.val76.us.pre, %.loopexit.us.loopexit98 ], [ %56, %.lr.ph.us ]
  %102 = phi ptr [ %93, %.loopexit.us.loopexit98 ], [ %55, %.lr.ph.us ]
  %.not71.us = icmp sgt i32 %.val76.us, -1
  br i1 %.not71.us, label %.lr.ph.us, label %.loopexit78.us, !llvm.loop !54

._crit_edge.us:                                   ; preds = %92
  %indvars.iv.next102 = add nuw nsw i64 %indvars.iv101, 1
  %exitcond105.not = icmp eq i64 %indvars.iv.next102, %wide.trip.count104
  br i1 %exitcond105.not, label %.loopexit.us.loopexit98, label %.preheader.us93, !llvm.loop !55

.preheader.us93.preheader:                        ; preds = %.lr.ph.us
  %103 = zext nneg i32 %62 to i64
  %104 = add nuw nsw i32 %60, 1
  %105 = add nuw nsw i32 %104, %64
  %106 = zext nneg i32 %65 to i64
  %107 = select i1 %66, i32 2, i32 1
  %108 = add nuw nsw i32 %107, %61
  %wide.trip.count104 = zext nneg i32 %108 to i64
  %wide.trip.count = zext nneg i32 %105 to i64
  br label %.preheader.us93

._crit_edge90.us:                                 ; preds = %.loopexit78.us
  %indvars.iv.next112 = add nuw nsw i64 %indvars.iv111, 1
  %exitcond115.not = icmp eq i64 %indvars.iv.next112, %wide.trip.count114
  br i1 %exitcond115.not, label %._crit_edge92, label %.preheader79.us, !llvm.loop !56

._crit_edge92:                                    ; preds = %._crit_edge90.us, %.preheader79.lr.ph, %9
  ret void
}